target datalayout = "e-m:e-p270:32:32-p271:32:32-p272:64:64-i64:64-i128:128-f80:128-n8:16:32:64-S128"
target triple = "x86_64-pc-linux-gnu"

%struct._zval_struct = type { %union._zend_value, %union.anon, %union.anon.2 }
%union._zend_value = type { i64 }
%union.anon = type { i32 }
%union.anon.2 = type { i32 }
%struct._zend_array = type { %struct._zend_refcounted_h, %union.anon.4, i32, %union.anon.6, i32, i32, i32, i32, i64, ptr }
%struct._zend_refcounted_h = type { i32, %union.anon.3 }
%union.anon.3 = type { i32 }
%union.anon.4 = type { i32 }
%union.anon.6 = type { ptr }
%struct._sapi_globals_struct = type { ptr, %struct.sapi_request_info, %struct.sapi_headers_struct, i64, i8, i8, %struct.stat, ptr, ptr, ptr, i64, i32, i8, double, %struct._zend_array, %struct._zval_struct, %struct._zend_fcall_info_cache, %struct.sapi_request_parse_body_context }
%struct.sapi_request_info = type { ptr, ptr, ptr, i64, ptr, ptr, ptr, ptr, i8, i8, i8, ptr, ptr, ptr, ptr, ptr, ptr, ptr, i32, i32, ptr, i32 }
%struct.sapi_headers_struct = type { %struct._zend_llist, i32, i8, ptr, ptr }
%struct._zend_llist = type { ptr, ptr, i64, i64, ptr, i8, ptr }
%struct.stat = type { i64, i64, i64, i32, i32, i32, i32, i64, i64, i64, i64, %struct.timespec, %struct.timespec, %struct.timespec, [3 x i64] }
%struct.timespec = type { i64, i64 }
%struct._zend_fcall_info_cache = type { ptr, ptr, ptr, ptr, ptr }
%struct.sapi_request_parse_body_context = type { i8, [5 x %struct.anon.8] }
%struct.anon.8 = type { i8, i64 }

@sapi_globals = external global %struct._sapi_globals_struct, align 8

; Function Attrs: nounwind uwtable
define internal i64 @sapi_cgi_read_post(ptr noundef %0, i64 noundef %1) #0 {
  %3 = alloca ptr, align 8
  %4 = alloca i64, align 8
  %5 = alloca i64, align 8
  %6 = alloca i32, align 4
  %7 = alloca i64, align 8
  store ptr %0, ptr %3, align 8, !tbaa !63
  store i64 %1, ptr %4, align 8, !tbaa !64
  call void @llvm.lifetime.start.p0(i64 8, ptr %5) #20
  store i64 0, ptr %5, align 8, !tbaa !64
  call void @llvm.lifetime.start.p0(i64 4, ptr %6) #20
  call void @llvm.lifetime.start.p0(i64 8, ptr %7) #20
  %8 = load i64, ptr getelementptr inbounds nuw (%struct.sapi_request_info, ptr getelementptr inbounds nuw (%struct._sapi_globals_struct, ptr @sapi_globals, i32 0, i32 1), i32 0, i32 3), align 8, !tbaa !143
  %9 = load i64, ptr getelementptr inbounds nuw (%struct._sapi_globals_struct, ptr @sapi_globals, i32 0, i32 3), align 8, !tbaa !144
  %10 = sub nsw i64 %8, %9
  store i64 %10, ptr %7, align 8, !tbaa !64
  %11 = load i64, ptr %4, align 8, !tbaa !64
  %12 = load i64, ptr %7, align 8, !tbaa !64
  %13 = icmp ult i64 %11, %12
  br i1 %13, label %14, label %16

14:                                               ; preds = %2
  %15 = load i64, ptr %4, align 8, !tbaa !64
  br label %18

16:                                               ; preds = %2
  %17 = load i64, ptr %7, align 8, !tbaa !64
  br label %18

18:                                               ; preds = %16, %14
  %19 = phi i64 [ %15, %14 ], [ %17, %16 ]
  store i64 %19, ptr %4, align 8, !tbaa !64
  br label %20

20:                                               ; preds = %36, %18
  %21 = load i64, ptr %5, align 8, !tbaa !64
  %22 = load i64, ptr %4, align 8, !tbaa !64
  %23 = icmp ult i64 %21, %22
  br i1 %23, label %24, label %41

24:                                               ; preds = %20
  %25 = load ptr, ptr %3, align 8, !tbaa !63
  %26 = load i64, ptr %5, align 8, !tbaa !64
  %27 = getelementptr inbounds nuw i8, ptr %25, i64 %26
  %28 = load i64, ptr %4, align 8, !tbaa !64
  %29 = load i64, ptr %5, align 8, !tbaa !64
  %30 = sub i64 %28, %29
  %31 = call i64 @read(i32 noundef 0, ptr noundef %27, i64 noundef %30)
  %32 = trunc i64 %31 to i32
  store i32 %32, ptr %6, align 4, !tbaa !73
  %33 = load i32, ptr %6, align 4, !tbaa !73
  %34 = icmp sle i32 %33, 0
  br i1 %34, label %35, label %36

35:                                               ; preds = %24
  br label %41

36:                                               ; preds = %24
  %37 = load i32, ptr %6, align 4, !tbaa !73
  %38 = sext i32 %37 to i64
  %39 = load i64, ptr %5, align 8, !tbaa !64
  %40 = add i64 %39, %38
  store i64 %40, ptr %5, align 8, !tbaa !64
  br label %20

41:                                               ; preds = %35, %20
  %42 = load i64, ptr %5, align 8, !tbaa !64
  call void @llvm.lifetime.end.p0(i64 8, ptr %7) #20
  call void @llvm.lifetime.end.p0(i64 4, ptr %6) #20
  call void @llvm.lifetime.end.p0(i64 8, ptr %5) #20
  ret i64 %42
}