; Function Attrs: nofree nounwind uwtable
define internal i64 @sapi_cgi_read_post(ptr noundef captures(none) %0, i64 noundef %1) #18 {
  %3 = load i64, ptr getelementptr inbounds nuw (i8, ptr @sapi_globals, i64 32), align 8, !tbaa !108
  %4 = load i64, ptr getelementptr inbounds nuw (i8, ptr @sapi_globals, i64 240), align 8, !tbaa !140
  %5 = sub nsw i64 %3, %4
  %6 = tail call i64 @llvm.umin.i64(i64 %1, i64 %5)
  %.not = icmp eq i64 %6, 0
  br i1 %.not, label %._crit_edge, label %.lr.ph

.lr.ph:                                           ; preds = %2, %12
  %.015 = phi i64 [ %14, %12 ], [ 0, %2 ]
  %7 = getelementptr inbounds nuw i8, ptr %0, i64 %.015
  %8 = sub nuw i64 %6, %.015
  %9 = tail call i64 @read(i32 noundef 0, ptr noundef %7, i64 noundef %8) #29
  %10 = trunc i64 %9 to i32
  %11 = icmp slt i32 %10, 1
  br i1 %11, label %._crit_edge, label %12

12:                                               ; preds = %.lr.ph
  %13 = and i64 %9, 2147483647
  %14 = add i64 %13, %.015
  %15 = icmp ult i64 %14, %6
  br i1 %15, label %.lr.ph, label %._crit_edge

._crit_edge:                                      ; preds = %12, %.lr.ph, %2
  %.0.lcssa = phi i64 [ 0, %2 ], [ %.015, %.lr.ph ], [ %14, %12 ]
  ret i64 %.0.lcssa
}